target datalayout = "e-m:e-p270:32:32-p271:32:32-p272:64:64-i64:64-i128:128-f80:128-n8:16:32:64-S128"
target triple = "x86_64-pc-linux-gnu"

%struct.NODE = type { ptr, ptr, ptr }
%struct.QueryOperator = type { i8, i8, i16, i32 }

; Function Attrs: nounwind uwtable
define internal ptr @clean_stopword_intree(ptr noundef %0, ptr noundef %1, ptr noundef %2) #0 {
  %4 = alloca ptr, align 8
  %5 = alloca ptr, align 8
  %6 = alloca ptr, align 8
  %7 = alloca ptr, align 8
  %8 = alloca ptr, align 8
  %9 = alloca i8, align 1
  %10 = alloca i32, align 4
  %11 = alloca i32, align 4
  %12 = alloca i32, align 4
  %13 = alloca i32, align 4
  %14 = alloca i32, align 4
  %15 = alloca i32, align 4
  store ptr %0, ptr %5, align 8
  store ptr %1, ptr %6, align 8
  store ptr %2, ptr %7, align 8
  call void @check_stack_depth()
  %16 = load ptr, ptr %7, align 8
  store i32 0, ptr %16, align 4
  %17 = load ptr, ptr %6, align 8
  store i32 0, ptr %17, align 4
  %18 = load ptr, ptr %5, align 8
  %19 = getelementptr inbounds nuw %struct.NODE, ptr %18, i32 0, i32 2
  %20 = load ptr, ptr %19, align 8
  %21 = load i8, ptr %20, align 4
  %22 = sext i8 %21 to i32
  %23 = icmp eq i32 %22, 1
  br i1 %23, label %24, label %26

24:                                               ; preds = %3
  %25 = load ptr, ptr %5, align 8
  store ptr %25, ptr %4, align 8
  br label %210

26:                                               ; preds = %3
  %27 = load ptr, ptr %5, align 8
  %28 = getelementptr inbounds nuw %struct.NODE, ptr %27, i32 0, i32 2
  %29 = load ptr, ptr %28, align 8
  %30 = load i8, ptr %29, align 4
  %31 = sext i8 %30 to i32
  %32 = icmp eq i32 %31, 3
  br i1 %32, label %33, label %35

33:                                               ; preds = %26
  %34 = load ptr, ptr %5, align 8
  call void @pfree(ptr noundef %34)
  store ptr null, ptr %4, align 8
  br label %210

35:                                               ; preds = %26
  br label %36

36:                                               ; preds = %35
  %37 = load ptr, ptr %5, align 8
  %38 = getelementptr inbounds nuw %struct.NODE, ptr %37, i32 0, i32 2
  %39 = load ptr, ptr %38, align 8
  %40 = getelementptr inbounds nuw %struct.QueryOperator, ptr %39, i32 0, i32 1
  %41 = load i8, ptr %40, align 1
  %42 = sext i8 %41 to i32
  %43 = icmp eq i32 %42, 1
  br i1 %43, label %44, label %60

44:                                               ; preds = %36
  %45 = load ptr, ptr %5, align 8
  %46 = getelementptr inbounds nuw %struct.NODE, ptr %45, i32 0, i32 1
  %47 = load ptr, ptr %46, align 8
  %48 = load ptr, ptr %6, align 8
  %49 = load ptr, ptr %7, align 8
  %50 = call ptr @clean_stopword_intree(ptr noundef %47, ptr noundef %48, ptr noundef %49)
  %51 = load ptr, ptr %5, align 8
  %52 = getelementptr inbounds nuw %struct.NODE, ptr %51, i32 0, i32 1
  store ptr %50, ptr %52, align 8
  %53 = load ptr, ptr %5, align 8
  %54 = getelementptr inbounds nuw %struct.NODE, ptr %53, i32 0, i32 1
  %55 = load ptr, ptr %54, align 8
  %56 = icmp ne ptr %55, null
  br i1 %56, label %59, label %57

57:                                               ; preds = %44
  %58 = load ptr, ptr %5, align 8
  call void @freetree(ptr noundef %58)
  store ptr null, ptr %4, align 8
  br label %210

59:                                               ; preds = %44
  br label %208

60:                                               ; preds = %36
  call void @llvm.lifetime.start.p0(i64 8, ptr %8) #5
  %61 = load ptr, ptr %5, align 8
  store ptr %61, ptr %8, align 8
  call void @llvm.lifetime.start.p0(i64 1, ptr %9) #5
  call void @llvm.lifetime.start.p0(i64 4, ptr %10) #5
  call void @llvm.lifetime.start.p0(i64 4, ptr %11) #5
  call void @llvm.lifetime.start.p0(i64 4, ptr %12) #5
  call void @llvm.lifetime.start.p0(i64 4, ptr %13) #5
  call void @llvm.lifetime.start.p0(i64 4, ptr %14) #5
  %62 = load ptr, ptr %5, align 8
  %63 = getelementptr inbounds nuw %struct.NODE, ptr %62, i32 0, i32 0
  %64 = load ptr, ptr %63, align 8
  %65 = call ptr @clean_stopword_intree(ptr noundef %64, ptr noundef %11, ptr noundef %12)
  %66 = load ptr, ptr %5, align 8
  %67 = getelementptr inbounds nuw %struct.NODE, ptr %66, i32 0, i32 0
  store ptr %65, ptr %67, align 8
  %68 = load ptr, ptr %5, align 8
  %69 = getelementptr inbounds nuw %struct.NODE, ptr %68, i32 0, i32 1
  %70 = load ptr, ptr %69, align 8
  %71 = call ptr @clean_stopword_intree(ptr noundef %70, ptr noundef %13, ptr noundef %14)
  %72 = load ptr, ptr %5, align 8
  %73 = getelementptr inbounds nuw %struct.NODE, ptr %72, i32 0, i32 1
  store ptr %71, ptr %73, align 8
  %74 = load ptr, ptr %5, align 8
  %75 = getelementptr inbounds nuw %struct.NODE, ptr %74, i32 0, i32 2
  %76 = load ptr, ptr %75, align 8
  %77 = getelementptr inbounds nuw %struct.QueryOperator, ptr %76, i32 0, i32 1
  %78 = load i8, ptr %77, align 1
  %79 = sext i8 %78 to i32
  %80 = icmp eq i32 %79, 4
  %81 = zext i1 %80 to i8
  store i8 %81, ptr %9, align 1
  %82 = load i8, ptr %9, align 1, !range !4, !noundef !5
  %83 = trunc i8 %82 to i1
  br i1 %83, label %84, label %91

84:                                               ; preds = %60
  %85 = load ptr, ptr %5, align 8
  %86 = getelementptr inbounds nuw %struct.NODE, ptr %85, i32 0, i32 2
  %87 = load ptr, ptr %86, align 8
  %88 = getelementptr inbounds nuw %struct.QueryOperator, ptr %87, i32 0, i32 2
  %89 = load i16, ptr %88, align 2
  %90 = sext i16 %89 to i32
  br label %92

91:                                               ; preds = %60
  br label %92

92:                                               ; preds = %91, %84
  %93 = phi i32 [ %90, %84 ], [ 0, %91 ]
  store i32 %93, ptr %10, align 4
  %94 = load ptr, ptr %5, align 8
  %95 = getelementptr inbounds nuw %struct.NODE, ptr %94, i32 0, i32 0
  %96 = load ptr, ptr %95, align 8
  %97 = icmp eq ptr %96, null
  br i1 %97, label %98, label %128

98:                                               ; preds = %92
  %99 = load ptr, ptr %5, align 8
  %100 = getelementptr inbounds nuw %struct.NODE, ptr %99, i32 0, i32 1
  %101 = load ptr, ptr %100, align 8
  %102 = icmp eq ptr %101, null
  br i1 %102, label %103, label %128

103:                                              ; preds = %98
  %104 = load i8, ptr %9, align 1, !range !4, !noundef !5
  %105 = trunc i8 %104 to i1
  br i1 %105, label %106, label %114

106:                                              ; preds = %103
  %107 = load i32, ptr %11, align 4
  %108 = load i32, ptr %10, align 4
  %109 = add i32 %107, %108
  %110 = load i32, ptr %13, align 4
  %111 = add i32 %109, %110
  %112 = load ptr, ptr %7, align 8
  store i32 %111, ptr %112, align 4
  %113 = load ptr, ptr %6, align 8
  store i32 %111, ptr %113, align 4
  br label %126

114:                                              ; preds = %103
  %115 = load i32, ptr %11, align 4
  %116 = load i32, ptr %13, align 4
  %117 = icmp sgt i32 %115, %116
  br i1 %117, label %118, label %120

118:                                              ; preds = %114
  %119 = load i32, ptr %11, align 4
  br label %122

120:                                              ; preds = %114
  %121 = load i32, ptr %13, align 4
  br label %122

122:                                              ; preds = %120, %118
  %123 = phi i32 [ %119, %118 ], [ %121, %120 ]
  %124 = load ptr, ptr %7, align 8
  store i32 %123, ptr %124, align 4
  %125 = load ptr, ptr %6, align 8
  store i32 %123, ptr %125, align 4
  br label %126

126:                                              ; preds = %122, %106
  %127 = load ptr, ptr %5, align 8
  call void @freetree(ptr noundef %127)
  store ptr null, ptr %4, align 8
  store i32 1, ptr %15, align 4
  br label %207

128:                                              ; preds = %98, %92
  %129 = load ptr, ptr %5, align 8
  %130 = getelementptr inbounds nuw %struct.NODE, ptr %129, i32 0, i32 0
  %131 = load ptr, ptr %130, align 8
  %132 = icmp eq ptr %131, null
  br i1 %132, label %133, label %155

133:                                              ; preds = %128
  %134 = load i8, ptr %9, align 1, !range !4, !noundef !5
  %135 = trunc i8 %134 to i1
  br i1 %135, label %136, label %145

136:                                              ; preds = %133
  %137 = load i32, ptr %11, align 4
  %138 = load i32, ptr %10, align 4
  %139 = add i32 %137, %138
  %140 = load i32, ptr %13, align 4
  %141 = add i32 %139, %140
  %142 = load ptr, ptr %6, align 8
  store i32 %141, ptr %142, align 4
  %143 = load i32, ptr %14, align 4
  %144 = load ptr, ptr %7, align 8
  store i32 %143, ptr %144, align 4
  br label %150

145:                                              ; preds = %133
  %146 = load i32, ptr %13, align 4
  %147 = load ptr, ptr %6, align 8
  store i32 %146, ptr %147, align 4
  %148 = load i32, ptr %14, align 4
  %149 = load ptr, ptr %7, align 8
  store i32 %148, ptr %149, align 4
  br label %150

150:                                              ; preds = %145, %136
  %151 = load ptr, ptr %5, align 8
  %152 = getelementptr inbounds nuw %struct.NODE, ptr %151, i32 0, i32 1
  %153 = load ptr, ptr %152, align 8
  store ptr %153, ptr %8, align 8
  %154 = load ptr, ptr %5, align 8
  call void @pfree(ptr noundef %154)
  br label %204

155:                                              ; preds = %128
  %156 = load ptr, ptr %5, align 8
  %157 = getelementptr inbounds nuw %struct.NODE, ptr %156, i32 0, i32 1
  %158 = load ptr, ptr %157, align 8
  %159 = icmp eq ptr %158, null
  br i1 %159, label %160, label %182

160:                                              ; preds = %155
  %161 = load i8, ptr %9, align 1, !range !4, !noundef !5
  %162 = trunc i8 %161 to i1
  br i1 %162, label %163, label %172

163:                                              ; preds = %160
  %164 = load i32, ptr %11, align 4
  %165 = load ptr, ptr %6, align 8
  store i32 %164, ptr %165, align 4
  %166 = load i32, ptr %12, align 4
  %167 = load i32, ptr %10, align 4
  %168 = add i32 %166, %167
  %169 = load i32, ptr %14, align 4
  %170 = add i32 %168, %169
  %171 = load ptr, ptr %7, align 8
  store i32 %170, ptr %171, align 4
  br label %177

172:                                              ; preds = %160
  %173 = load i32, ptr %11, align 4
  %174 = load ptr, ptr %6, align 8
  store i32 %173, ptr %174, align 4
  %175 = load i32, ptr %12, align 4
  %176 = load ptr, ptr %7, align 8
  store i32 %175, ptr %176, align 4
  br label %177

177:                                              ; preds = %172, %163
  %178 = load ptr, ptr %5, align 8
  %179 = getelementptr inbounds nuw %struct.NODE, ptr %178, i32 0, i32 0
  %180 = load ptr, ptr %179, align 8
  store ptr %180, ptr %8, align 8
  %181 = load ptr, ptr %5, align 8
  call void @pfree(ptr noundef %181)
  br label %203

182:                                              ; preds = %155
  %183 = load i8, ptr %9, align 1, !range !4, !noundef !5
  %184 = trunc i8 %183 to i1
  br i1 %184, label %185, label %201

185:                                              ; preds = %182
  %186 = load i32, ptr %12, align 4
  %187 = load i32, ptr %13, align 4
  %188 = add i32 %186, %187
  %189 = load ptr, ptr %5, align 8
  %190 = getelementptr inbounds nuw %struct.NODE, ptr %189, i32 0, i32 2
  %191 = load ptr, ptr %190, align 8
  %192 = getelementptr inbounds nuw %struct.QueryOperator, ptr %191, i32 0, i32 2
  %193 = load i16, ptr %192, align 2
  %194 = sext i16 %193 to i32
  %195 = add i32 %194, %188
  %196 = trunc i32 %195 to i16
  store i16 %196, ptr %192, align 2
  %197 = load i32, ptr %11, align 4
  %198 = load ptr, ptr %6, align 8
  store i32 %197, ptr %198, align 4
  %199 = load i32, ptr %14, align 4
  %200 = load ptr, ptr %7, align 8
  store i32 %199, ptr %200, align 4
  br label %202

201:                                              ; preds = %182
  br label %202

202:                                              ; preds = %201, %185
  br label %203

203:                                              ; preds = %202, %177
  br label %204

204:                                              ; preds = %203, %150
  br label %205

205:                                              ; preds = %204
  %206 = load ptr, ptr %8, align 8
  store ptr %206, ptr %4, align 8
  store i32 1, ptr %15, align 4
  br label %207

207:                                              ; preds = %205, %126
  call void @llvm.lifetime.end.p0(i64 4, ptr %14) #5
  call void @llvm.lifetime.end.p0(i64 4, ptr %13) #5
  call void @llvm.lifetime.end.p0(i64 4, ptr %12) #5
  call void @llvm.lifetime.end.p0(i64 4, ptr %11) #5
  call void @llvm.lifetime.end.p0(i64 4, ptr %10) #5
  call void @llvm.lifetime.end.p0(i64 1, ptr %9) #5
  call void @llvm.lifetime.end.p0(i64 8, ptr %8) #5
  br label %210

208:                                              ; preds = %59
  %209 = load ptr, ptr %5, align 8
  store ptr %209, ptr %4, align 8
  br label %210

210:                                              ; preds = %208, %207, %57, %33, %24
  %211 = load ptr, ptr %4, align 8
  ret ptr %211
}