; Function Attrs: nounwind uwtable
define internal fastcc ptr @clean_stopword_intree(ptr noundef %0, ptr noundef nonnull writeonly captures(none) initializes((0, 4)) %1, ptr noundef nonnull writeonly captures(none) initializes((0, 4)) %2) unnamed_addr #0 {
  %4 = alloca i32, align 4
  %5 = alloca i32, align 4
  %6 = alloca i32, align 4
  %7 = alloca i32, align 4
  tail call void @check_stack_depth() #7
  store i32 0, ptr %2, align 4
  store i32 0, ptr %1, align 4
  %8 = getelementptr inbounds nuw i8, ptr %0, i64 16
  %9 = load ptr, ptr %8, align 8
  %10 = load i8, ptr %9, align 4
  switch i8 %10, label %12 [
    i8 1, label %80
    i8 3, label %11
  ]

11:                                               ; preds = %3
  tail call void @pfree(ptr noundef nonnull %0) #7
  br label %80

12:                                               ; preds = %3
  %13 = getelementptr inbounds nuw i8, ptr %9, i64 1
  %14 = load i8, ptr %13, align 1
  %15 = icmp eq i8 %14, 1
  br i1 %15, label %16, label %21

16:                                               ; preds = %12
  %17 = getelementptr inbounds nuw i8, ptr %0, i64 8
  %18 = load ptr, ptr %17, align 8
  %19 = tail call fastcc ptr @clean_stopword_intree(ptr noundef %18, ptr noundef %1, ptr noundef %2)
  store ptr %19, ptr %17, align 8
  %.not = icmp eq ptr %19, null
  br i1 %.not, label %20, label %80

20:                                               ; preds = %16
  tail call fastcc void @freetree(ptr noundef nonnull %0)
  br label %80

21:                                               ; preds = %12
  call void @llvm.lifetime.start.p0(i64 4, ptr nonnull %4) #7
  call void @llvm.lifetime.start.p0(i64 4, ptr nonnull %5) #7
  call void @llvm.lifetime.start.p0(i64 4, ptr nonnull %6) #7
  call void @llvm.lifetime.start.p0(i64 4, ptr nonnull %7) #7
  %22 = load ptr, ptr %0, align 8
  %23 = call fastcc ptr @clean_stopword_intree(ptr noundef %22, ptr noundef %4, ptr noundef %5)
  store ptr %23, ptr %0, align 8
  %24 = getelementptr inbounds nuw i8, ptr %0, i64 8
  %25 = load ptr, ptr %24, align 8
  %26 = call fastcc ptr @clean_stopword_intree(ptr noundef %25, ptr noundef %6, ptr noundef %7)
  store ptr %26, ptr %24, align 8
  %27 = load ptr, ptr %8, align 8
  %28 = getelementptr inbounds nuw i8, ptr %27, i64 1
  %29 = load i8, ptr %28, align 1
  %30 = icmp eq i8 %29, 4
  br i1 %30, label %31, label %35

31:                                               ; preds = %21
  %32 = getelementptr inbounds nuw i8, ptr %27, i64 2
  %33 = load i16, ptr %32, align 2
  %34 = sext i16 %33 to i32
  br label %35

35:                                               ; preds = %21, %31
  %36 = phi i32 [ %34, %31 ], [ 0, %21 ]
  %37 = load ptr, ptr %0, align 8
  %38 = icmp eq ptr %37, null
  %39 = icmp eq ptr %26, null
  br i1 %38, label %40, label %61

40:                                               ; preds = %35
  br i1 %39, label %41, label %51

41:                                               ; preds = %40
  %42 = load i32, ptr %4, align 4
  br i1 %30, label %43, label %47

43:                                               ; preds = %41
  %44 = add i32 %42, %36
  %45 = load i32, ptr %6, align 4
  %46 = add i32 %44, %45
  br label %50

47:                                               ; preds = %41
  %48 = load i32, ptr %6, align 4
  %49 = tail call i32 @llvm.smax.i32(i32 %42, i32 %48)
  br label %50

50:                                               ; preds = %47, %43
  %storemerge58 = phi i32 [ %49, %47 ], [ %46, %43 ]
  store i32 %storemerge58, ptr %2, align 4
  store i32 %storemerge58, ptr %1, align 4
  tail call fastcc void @freetree(ptr noundef nonnull %0)
  br label %79

51:                                               ; preds = %40
  br i1 %30, label %52, label %57

52:                                               ; preds = %51
  %53 = load i32, ptr %4, align 4
  %54 = add i32 %53, %36
  %55 = load i32, ptr %6, align 4
  %56 = add i32 %54, %55
  br label %59

57:                                               ; preds = %51
  %58 = load i32, ptr %6, align 4
  br label %59

59:                                               ; preds = %57, %52
  %storemerge57 = phi i32 [ %58, %57 ], [ %56, %52 ]
  store i32 %storemerge57, ptr %1, align 4
  %storemerge56 = load i32, ptr %7, align 4
  store i32 %storemerge56, ptr %2, align 4
  %60 = load ptr, ptr %24, align 8
  tail call void @pfree(ptr noundef nonnull %0) #7
  br label %79

61:                                               ; preds = %35
  br i1 %39, label %62, label %68

62:                                               ; preds = %61
  %63 = load i32, ptr %5, align 4
  %64 = add i32 %63, %36
  %65 = load i32, ptr %7, align 4
  %66 = add i32 %64, %65
  %storemerge = select i1 %30, i32 %66, i32 %63
  %.sink = load i32, ptr %4, align 4
  store i32 %.sink, ptr %1, align 4
  store i32 %storemerge, ptr %2, align 4
  %67 = load ptr, ptr %0, align 8
  tail call void @pfree(ptr noundef nonnull %0) #7
  br label %79

68:                                               ; preds = %61
  br i1 %30, label %69, label %79

69:                                               ; preds = %68
  %70 = load i32, ptr %5, align 4
  %71 = load i32, ptr %6, align 4
  %72 = add i32 %71, %70
  %73 = getelementptr inbounds nuw i8, ptr %27, i64 2
  %74 = load i16, ptr %73, align 2
  %75 = trunc i32 %72 to i16
  %76 = add i16 %74, %75
  store i16 %76, ptr %73, align 2
  %77 = load i32, ptr %4, align 4
  store i32 %77, ptr %1, align 4
  %78 = load i32, ptr %7, align 4
  store i32 %78, ptr %2, align 4
  br label %79

79:                                               ; preds = %62, %68, %69, %59, %50
  %.1 = phi ptr [ null, %50 ], [ %60, %59 ], [ %67, %62 ], [ %0, %69 ], [ %0, %68 ]
  call void @llvm.lifetime.end.p0(i64 4, ptr nonnull %7) #7
  call void @llvm.lifetime.end.p0(i64 4, ptr nonnull %6) #7
  call void @llvm.lifetime.end.p0(i64 4, ptr nonnull %5) #7
  call void @llvm.lifetime.end.p0(i64 4, ptr nonnull %4) #7
  br label %80

80:                                               ; preds = %16, %3, %79, %20, %11
  %.0 = phi ptr [ null, %11 ], [ null, %20 ], [ %.1, %79 ], [ %0, %3 ], [ %0, %16 ]
  ret ptr %.0
}